; Function Attrs: nounwind uwtable
define noalias nonnull ptr @l_Lake_mkMessageNoPos(ptr noundef %0, ptr noundef %1, i8 noundef zeroext %2) local_unnamed_addr #0 {
  %4 = getelementptr inbounds nuw i8, ptr %0, i64 16
  %5 = load ptr, ptr %4, align 8, !tbaa !4
  %6 = ptrtoint ptr %5 to i64
  %7 = and i64 %6, 1
  %.not = icmp eq i64 %7, 0
  br i1 %.not, label %8, label %lean_inc.exit23

8:                                                ; preds = %3
  %.val.i = load i32, ptr %5, align 4, !tbaa !8
  %9 = icmp sgt i32 %.val.i, 0
  br i1 %9, label %10, label %12, !prof !11

10:                                               ; preds = %8
  %11 = add nuw i32 %.val.i, 1
  store i32 %11, ptr %5, align 4, !tbaa !8
  br label %lean_inc.exit23

12:                                               ; preds = %8
  %.not.i24 = icmp eq i32 %.val.i, 0
  br i1 %.not.i24, label %lean_inc.exit23, label %13

13:                                               ; preds = %12
  tail call void @lean_inc_ref_cold(ptr noundef nonnull %5) #3
  br label %lean_inc.exit23

lean_inc.exit23:                                  ; preds = %13, %12, %10, %3
  %14 = getelementptr inbounds nuw i8, ptr %0, i64 24
  %15 = load ptr, ptr %14, align 8, !tbaa !4
  %16 = ptrtoint ptr %15 to i64
  %17 = and i64 %16, 1
  %.not28 = icmp eq i64 %17, 0
  br i1 %.not28, label %18, label %lean_inc.exit

18:                                               ; preds = %lean_inc.exit23
  %.val.i25 = load i32, ptr %15, align 4, !tbaa !8
  %19 = icmp sgt i32 %.val.i25, 0
  br i1 %19, label %20, label %22, !prof !11

20:                                               ; preds = %18
  %21 = add nuw i32 %.val.i25, 1
  store i32 %21, ptr %15, align 4, !tbaa !8
  br label %lean_inc.exit

22:                                               ; preds = %18
  %.not.i26 = icmp eq i32 %.val.i25, 0
  br i1 %.not.i26, label %lean_inc.exit, label %23

23:                                               ; preds = %22
  tail call void @lean_inc_ref_cold(ptr noundef nonnull %15) #3
  br label %lean_inc.exit

lean_inc.exit:                                    ; preds = %23, %22, %20, %lean_inc.exit23
  %24 = ptrtoint ptr %0 to i64
  %25 = and i64 %24, 1
  %.not29 = icmp eq i64 %25, 0
  br i1 %.not29, label %26, label %lean_dec.exit

26:                                               ; preds = %lean_inc.exit
  %27 = load i32, ptr %0, align 4, !tbaa !8
  %28 = icmp sgt i32 %27, 1
  br i1 %28, label %29, label %31, !prof !11

29:                                               ; preds = %26
  %30 = add nsw i32 %27, -1
  store i32 %30, ptr %0, align 4, !tbaa !8
  br label %lean_dec.exit

31:                                               ; preds = %26
  %.not.i = icmp eq i32 %27, 0
  br i1 %.not.i, label %lean_dec.exit, label %32

32:                                               ; preds = %31
  tail call void @lean_dec_ref_cold(ptr noundef nonnull %0) #3
  br label %lean_dec.exit

lean_dec.exit:                                    ; preds = %32, %31, %29, %lean_inc.exit
  %33 = tail call ptr @l_Lean_FileMap_toPosition(ptr noundef %15, ptr noundef nonnull inttoptr (i64 1 to ptr)) #3
  %34 = load ptr, ptr @l_Lake_mkParserErrorMessage___closed__1, align 8, !tbaa !4
  tail call void @lean_inc_heartbeat() #3
  %35 = tail call noalias ptr @mi_malloc_small(i64 noundef 56) #3
  %36 = icmp eq ptr %35, null
  br i1 %36, label %37, label %lean_alloc_ctor.exit

37:                                               ; preds = %lean_dec.exit
  tail call void @lean_internal_panic_out_of_memory() #4
  unreachable

lean_alloc_ctor.exit:                             ; preds = %lean_dec.exit
  %38 = getelementptr inbounds nuw i8, ptr %35, i64 4
  %39 = getelementptr inbounds nuw i8, ptr %35, i64 48
  store i64 0, ptr %39, align 8, !tbaa !12
  store i32 1, ptr %35, align 4, !tbaa !8
  store i32 327736, ptr %38, align 4
  %40 = getelementptr inbounds nuw i8, ptr %35, i64 8
  store ptr %5, ptr %40, align 8, !tbaa !4
  %41 = getelementptr inbounds nuw i8, ptr %35, i64 16
  store ptr %33, ptr %41, align 8, !tbaa !4
  %42 = getelementptr inbounds nuw i8, ptr %35, i64 24
  store ptr inttoptr (i64 1 to ptr), ptr %42, align 8, !tbaa !4
  %43 = getelementptr inbounds nuw i8, ptr %35, i64 32
  store ptr %34, ptr %43, align 8, !tbaa !4
  %44 = getelementptr inbounds nuw i8, ptr %35, i64 40
  store ptr %1, ptr %44, align 8, !tbaa !4
  %45 = getelementptr inbounds nuw i8, ptr %35, i64 49
  store i8 %2, ptr %45, align 1, !tbaa !14
  ret ptr %35
}